; Function Attrs: nofree norecurse nosync nounwind memory(argmem: readwrite) uwtable
define hidden void @ScaleRowUp2_Linear_C(ptr noundef readonly captures(none) %0, ptr noundef writeonly captures(none) %1, i32 noundef %2) local_unnamed_addr #0 {
  %4 = ashr i32 %2, 1
  %5 = icmp sgt i32 %4, 0
  br i1 %5, label %.lr.ph.preheader, label %._crit_edge

.lr.ph.preheader:                                 ; preds = %3
  %wide.trip.count = zext nneg i32 %4 to i64
  br label %.lr.ph

.lr.ph:                                           ; preds = %.lr.ph.preheader, %.lr.ph
  %indvars.iv = phi i64 [ 0, %.lr.ph.preheader ], [ %indvars.iv.next, %.lr.ph ]
  %6 = getelementptr inbounds nuw i8, ptr %0, i64 %indvars.iv
  %7 = load i8, ptr %6, align 1
  %8 = zext i8 %7 to i16
  %9 = mul nuw nsw i16 %8, 3
  %indvars.iv.next = add nuw nsw i64 %indvars.iv, 1
  %10 = getelementptr inbounds nuw i8, ptr %0, i64 %indvars.iv.next
  %11 = load i8, ptr %10, align 1
  %12 = zext i8 %11 to i16
  %13 = add nuw nsw i16 %12, 2
  %14 = add nuw nsw i16 %13, %9
  %15 = lshr i16 %14, 2
  %16 = trunc nuw i16 %15 to i8
  %17 = shl nuw nsw i64 %indvars.iv, 1
  %18 = getelementptr inbounds nuw i8, ptr %1, i64 %17
  store i8 %16, ptr %18, align 1
  %19 = load i8, ptr %6, align 1
  %20 = zext i8 %19 to i16
  %21 = load i8, ptr %10, align 1
  %22 = zext i8 %21 to i16
  %23 = mul nuw nsw i16 %22, 3
  %24 = add nuw nsw i16 %20, 2
  %25 = add nuw nsw i16 %24, %23
  %26 = lshr i16 %25, 2
  %27 = trunc nuw i16 %26 to i8
  %28 = or disjoint i64 %17, 1
  %29 = getelementptr inbounds nuw i8, ptr %1, i64 %28
  store i8 %27, ptr %29, align 1
  %exitcond.not = icmp eq i64 %indvars.iv.next, %wide.trip.count
  br i1 %exitcond.not, label %._crit_edge, label %.lr.ph, !llvm.loop !4

._crit_edge:                                      ; preds = %.lr.ph, %3
  ret void
}